Certificate:
    Data:
        Version: 3 (0x2)
        Serial Number: 1 (0x1)
    Signature Algorithm: sha1WithRSAEncryption
        Issuer: C=US, ST=CA, L=SanFrancisco, O=Fort-Funston, OU=changeme, CN=changeme/name=changeme/emailAddress=mail@host.domain
        Validity
            Not Before: Nov 21 19:42:37 2014 GMT
            Not After : Feb 19 19:42:37 2015 GMT
        Subject: C=CZ, ST=CZ, O=koncentrator.cz, CN=AAAAAAAA
        Subject Public Key Info:
            Public Key Algorithm: rsaEncryption
                Public-Key: (2048 bit)
                Modulus:
                    00:c3:96:33:f9:6b:0d:08:ca:92:07:c9:de:01:43:
                    38:13:20:76:09:13:b5:e6:9b:01:00:81:34:ba:58:
                    66:1c:35:97:4f:5b:bd:c7:c7:0c:30:ce:b7:be:31:
                    14:eb:f1:79:ef:87:c8:a9:d9:42:e7:55:1e:c1:11:
                    d0:58:67:a9:88:2e:1b:6b:ae:5a:87:d6:fa:d7:46:
                    0c:92:ee:31:5e:24:00:47:7e:d6:d0:7a:ce:b6:a6:
                    49:38:24:c4:5e:c4:55:09:0a:e3:10:4b:80:10:b5:
                    bb:a5:a4:a2:19:26:12:71:a7:50:e4:73:1f:19:7c:
                    44:bb:be:cc:f6:24:b3:1c:87:4f:88:8c:50:89:0d:
                    d7:80:58:59:8a:51:29:e3:6c:a2:db:91:fd:5e:8c:
                    02:4d:d3:d1:79:16:18:b5:1a:39:b5:ca:b4:4f:57:
                    61:e5:95:04:54:c6:08:56:ed:5c:69:37:ed:a5:32:
                    c4:38:ac:45:20:8b:c5:db:ff:24:79:08:57:b1:8e:
                    1f:dc:a3:e6:51:b2:15:16:db:77:55:5c:cd:0c:52:
                    82:67:8f:71:ea:92:c4:3a:dd:80:4c:7a:f2:da:b6:
                    6b:92:0f:f6:bd:f0:f5:5b:82:3d:05:70:b5:ba:bb:
                    a8:d1:ec:29:ae:c9:c7:57:d5:82:4e:66:b0:d2:84:
                    a3:4f
                Exponent: 65537 (0x10001)
        X509v3 extensions:
            X509v3 Basic Constraints: 
                CA:FALSE
            Netscape Comment: 
                Easy-RSA Generated Certificate
            X509v3 Subject Key Identifier: 
                C4:A7:EC:4B:93:37:3D:7C:64:B3:CF:CA:72:90:C4:2B:00:F1:C5:CE
            X509v3 Authority Key Identifier: 
                keyid:26:BB:EC:B8:CA:54:97:E2:CD:0F:8E:C6:06:5A:3C:6B:99:2E:A6:C6
                DirName:/C=US/ST=CA/L=SanFrancisco/O=Fort-Funston/OU=changeme/CN=changeme/name=changeme/emailAddress=mail@host.domain
                serial:FD:6B:E7:3D:7A:68:F8:50

            X509v3 Extended Key Usage: 
                TLS Web Client Authentication
            X509v3 Key Usage: 
                Digital Signature
    Signature Algorithm: sha1WithRSAEncryption
         06:3e:07:7c:7a:e2:a8:18:bb:69:ec:96:50:ef:26:38:99:6e:
         1f:70:f2:d7:cd:7a:ad:e0:a6:7b:a7:7a:44:a5:6d:c1:80:98:
         5f:64:e5:6d:df:b5:c3:64:55:2c:8e:5c:31:47:f0:19:2f:6a:
         0a:28:57:b1:1a:58:6d:8a:ed:a4:ee:26:bc:1f:56:98:ee:59:
         a6:82:00:c3:e9:9c:de:46:fb:a3:bf:5d:54:24:f7:ac:7c:ea:
         4e:c7:8f:0f:fa:62:70:e4:c5:6e:e7:d2:ab:a4:5b:1c:ee:b3:
         9b:59:fd:18:b4:9a:cf:16:71:87:21:aa:e0:01:12:35:c0:e5:
         2a:99:d3:2e:5e:3a:2b:85:a8:6f:6e:2d:65:24:b9:27:5a:f7:
         54:36:25:a4:a0:b9:0a:36:24:23:7a:0b:01:89:5f:0f:4d:39:
         fd:da:b5:f2:b6:62:29:ef:50:4c:1a:19:2c:99:29:de:2d:2e:
         1f:ac:cf:b6:fa:79:2c:30:f5:da:d9:ce:cd:0a:8e:9d:65:f9:
         07:a7:f1:e6:88:c8:31:5a:84:4e:24:bd:f1:02:c8:49:02:9e:
         2b:b0:1e:87:60:19:d9:23:7d:a8:eb:3b:a9:95:61:1a:55:10:
         bc:3e:39:3c:9b:42:d1:9a:a6:53:5e:79:34:a7:01:7a:b0:da:
         9d:13:c9:84
-----BEGIN CERTIFICATE-----
MIIEwDCCA6igAwIBAgIBATANBgkqhkiG9w0BAQUFADCBojELMAkGA1UEBhMCVVMx
CzAJBgNVBAgTAkNBMRUwEwYDVQQHEwxTYW5GcmFuY2lzY28xFTATBgNVBAoTDEZv
cnQtRnVuc3RvbjERMA8GA1UECxMIY2hhbmdlbWUxETAPBgNVBAMTCGNoYW5nZW1l
MREwDwYDVQQpEwhjaGFuZ2VtZTEfMB0GCSqGSIb3DQEJARYQbWFpbEBob3N0LmRv
bWFpbjAeFw0xNDExMjExOTQyMzdaFw0xNTAyMTkxOTQyMzdaMEcxCzAJBgNVBAYT
AkNaMQswCQYDVQQIEwJDWjEYMBYGA1UEChMPa29uY2VudHJhdG9yLmN6MREwDwYD
VQQDEwhBQUFBQUFBQTCCASIwDQYJKoZIhvcNAQEBBQADggEPADCCAQoCggEBAMOW
M/lrDQjKkgfJ3gFDOBMgdgkTteabAQCBNLpYZhw1l09bvcfHDDDOt74xFOvxee+H
yKnZQudVHsER0FhnqYguG2uuWofW+tdGDJLuMV4kAEd+1tB6zramSTgkxF7EVQkK
4xBLgBC1u6WkohkmEnGnUORzHxl8RLu+zPYksxyHT4iMUIkN14BYWYpRKeNsotuR
/V6MAk3T0XkWGLUaObXKtE9XYeWVBFTGCFbtXGk37aUyxDisRSCLxdv/JHkIV7GO
H9yj5lGyFRbbd1VczQxSgmePceqSxDrdgEx68tq2a5IP9r3w9VuCPQVwtbq7qNHs
Ka7Jx1fVgk5msNKEo08CAwEAAaOCAVkwggFVMAkGA1UdEwQCMAAwLQYJYIZIAYb4
QgENBCAWHkVhc3ktUlNBIEdlbmVyYXRlZCBDZXJ0aWZpY2F0ZTAdBgNVHQ4EFgQU
xKfsS5M3PXxks8/KcpDEKwDxxc4wgdcGA1UdIwSBzzCBzIAUJrvsuMpUl+LND47G
Blo8a5kupsahgaikgaUwgaIxCzAJBgNVBAYTAlVTMQswCQYDVQQIEwJDQTEVMBMG
A1UEBxMMU2FuRnJhbmNpc2NvMRUwEwYDVQQKEwxGb3J0LUZ1bnN0b24xETAPBgNV
BAsTCGNoYW5nZW1lMREwDwYDVQQDEwhjaGFuZ2VtZTERMA8GA1UEKRMIY2hhbmdl
bWUxHzAdBgkqhkiG9w0BCQEWEG1haWxAaG9zdC5kb21haW6CCQD9a+c9emj4UDAT
BgNVHSUEDDAKBggrBgEFBQcDAjALBgNVHQ8EBAMCB4AwDQYJKoZIhvcNAQEFBQAD
ggEBAAY+B3x64qgYu2nsllDvJjiZbh9w8tfNeq3gpnunekSlbcGAmF9k5W3ftcNk
VSyOXDFH8BkvagooV7EaWG2K7aTuJrwfVpjuWaaCAMPpnN5G+6O/XVQk96x86k7H
jw/6YnDkxW7n0qukWxzus5tZ/Ri0ms8WcYchquABEjXA5SqZ0y5eOiuFqG9uLWUk
uSda91Q2JaSguQo2JCN6CwGJXw9NOf3atfK2YinvUEwaGSyZKd4tLh+sz7b6eSww
9drZzs0Kjp1l+Qen8eaIyDFahE4kvfECyEkCniuwHodgGdkjfajrO6mVYRpVELw+
OTybQtGaplNeeTSnAXqw2p0TyYQ=
-----END CERTIFICATE-----
