Certificate:
    Data:
        Version: 3 (0x2)
        Serial Number: 1 (0x1)
    Signature Algorithm: sha1WithRSAEncryption
        Issuer: C=CZ, ST=CZ, O=tun-basic-12345, CN=tun-basic-12345
        Validity
            Not Before: Mar 30 13:04:51 2015 GMT
            Not After : Mar 27 13:04:51 2025 GMT
        Subject: C=CZ, ST=CZ, O=tun-basic-12345, CN=tun-basic-12345
        Subject Public Key Info:
            Public Key Algorithm: rsaEncryption
                Public-Key: (2048 bit)
                Modulus:
                    00:bc:2c:7d:22:df:c3:b7:78:91:ac:50:98:0e:fc:
                    46:ff:cb:4b:85:eb:48:c3:71:ca:cc:ee:83:fb:65:
                    0c:a6:e0:c1:ff:1f:ec:42:a7:47:b5:76:a9:1b:6b:
                    12:35:80:0a:59:44:02:8b:e6:b6:b3:3f:87:f2:5e:
                    da:89:da:65:28:02:7b:3a:d8:55:5f:cf:3d:c1:04:
                    32:f8:bc:bc:81:aa:1a:9c:7c:a8:52:c7:c7:d2:0e:
                    be:76:2a:fb:0a:71:61:b2:04:c8:f1:95:e5:9b:26:
                    4f:6a:5a:5e:ff:56:73:da:db:ce:be:35:9b:7a:d6:
                    5a:cd:99:34:dd:c0:14:92:6a:9d:bf:19:5b:bc:a9:
                    2d:72:ee:60:f2:ba:83:8c:05:2b:3e:b5:65:81:c4:
                    06:5b:b6:b3:24:c8:99:d1:61:32:ef:af:bf:70:40:
                    45:74:bc:e1:8e:2c:31:19:ad:2b:b4:dc:78:b9:49:
                    79:7a:56:f6:35:5e:54:3d:bf:63:e9:64:53:b5:c2:
                    84:4e:98:27:8e:e1:04:0d:2f:65:c1:86:80:8e:ca:
                    11:92:00:13:62:ae:c9:cd:11:86:fc:a3:1d:86:06:
                    3c:1a:02:32:f2:ae:e1:03:c1:08:91:87:4b:1e:1e:
                    8c:96:67:ce:6e:96:b0:81:ca:8c:f4:fe:7b:98:77:
                    71:8d
                Exponent: 65537 (0x10001)
        X509v3 extensions:
            X509v3 Basic Constraints: 
                CA:FALSE
            Netscape Comment: 
                Easy-RSA Generated Certificate
            X509v3 Subject Key Identifier: 
                1E:42:FD:7B:12:BF:52:56:84:A3:77:13:98:E7:96:19:88:82:36:39
            X509v3 Authority Key Identifier: 
                keyid:73:F3:43:26:08:97:A1:DC:46:77:DB:22:68:C7:BE:3D:95:58:52:94
                DirName:/C=CZ/ST=CZ/O=tun-basic-12345/CN=tun-basic-12345
                serial:D8:69:DC:99:47:55:76:E3

            X509v3 Extended Key Usage: 
                TLS Web Client Authentication
            X509v3 Key Usage: 
                Digital Signature
    Signature Algorithm: sha1WithRSAEncryption
         44:15:17:14:bc:97:60:96:35:4f:27:7d:c7:c3:27:80:fe:5b:
         42:3b:55:d9:f1:97:62:ee:44:29:fa:f9:5b:97:05:93:3c:4c:
         0b:2b:74:7f:df:5d:73:de:0f:ac:57:b2:03:d6:92:63:da:f7:
         7d:42:26:5c:aa:04:72:b2:b4:cd:3e:03:f6:2f:31:17:c3:09:
         2f:3c:d2:1b:91:3e:fb:5a:c4:4e:7e:4b:bf:98:a1:3e:67:64:
         c2:66:36:76:60:2a:54:37:d4:76:9e:d6:41:b3:fa:70:05:3d:
         7e:4c:dd:26:5a:4a:c8:b3:fa:52:fd:0c:ac:46:9d:1a:bd:b9:
         a3:44:7d:41:65:a2:25:d7:75:1b:a3:ee:59:4b:9e:cb:05:e7:
         72:97:61:c2:8e:ca:f6:20:44:8d:5c:0a:92:91:56:85:03:5e:
         4d:eb:f3:ac:73:8c:a2:e4:17:4d:86:87:bc:5d:d7:73:a5:0c:
         d0:4d:32:9e:61:db:8f:ce:fd:fe:da:f4:e7:f2:06:14:7e:f8:
         c5:81:b2:1d:30:b9:82:5a:e6:9b:09:26:d8:59:1a:e6:9f:83:
         10:cf:cd:40:80:b9:29:9c:f2:16:10:4a:e8:dd:89:38:4d:2d:
         16:40:1a:03:5e:c9:ab:5d:be:aa:0d:aa:6d:0b:5d:12:67:17:
         e7:b9:80:90
-----BEGIN CERTIFICATE-----
MIIEFjCCAv6gAwIBAgIBATANBgkqhkiG9w0BAQUFADBOMQswCQYDVQQGEwJDWjEL
MAkGA1UECBMCQ1oxGDAWBgNVBAoTD3R1bi1iYXNpYy0xMjM0NTEYMBYGA1UEAxMP
dHVuLWJhc2ljLTEyMzQ1MB4XDTE1MDMzMDEzMDQ1MVoXDTI1MDMyNzEzMDQ1MVow
TjELMAkGA1UEBhMCQ1oxCzAJBgNVBAgTAkNaMRgwFgYDVQQKEw90dW4tYmFzaWMt
MTIzNDUxGDAWBgNVBAMTD3R1bi1iYXNpYy0xMjM0NTCCASIwDQYJKoZIhvcNAQEB
BQADggEPADCCAQoCggEBALwsfSLfw7d4kaxQmA78Rv/LS4XrSMNxyszug/tlDKbg
wf8f7EKnR7V2qRtrEjWACllEAovmtrM/h/Je2onaZSgCezrYVV/PPcEEMvi8vIGq
Gpx8qFLHx9IOvnYq+wpxYbIEyPGV5ZsmT2paXv9Wc9rbzr41m3rWWs2ZNN3AFJJq
nb8ZW7ypLXLuYPK6g4wFKz61ZYHEBlu2syTImdFhMu+vv3BARXS84Y4sMRmtK7Tc
eLlJeXpW9jVeVD2/Y+lkU7XChE6YJ47hBA0vZcGGgI7KEZIAE2Kuyc0RhvyjHYYG
PBoCMvKu4QPBCJGHSx4ejJZnzm6WsIHKjPT+e5h3cY0CAwEAAaOB/jCB+zAJBgNV
HRMEAjAAMC0GCWCGSAGG+EIBDQQgFh5FYXN5LVJTQSBHZW5lcmF0ZWQgQ2VydGlm
aWNhdGUwHQYDVR0OBBYEFB5C/XsSv1JWhKN3E5jnlhmIgjY5MH4GA1UdIwR3MHWA
FHPzQyYIl6HcRnfbImjHvj2VWFKUoVKkUDBOMQswCQYDVQQGEwJDWjELMAkGA1UE
CBMCQ1oxGDAWBgNVBAoTD3R1bi1iYXNpYy0xMjM0NTEYMBYGA1UEAxMPdHVuLWJh
c2ljLTEyMzQ1ggkA2GncmUdVduMwEwYDVR0lBAwwCgYIKwYBBQUHAwIwCwYDVR0P
BAQDAgeAMA0GCSqGSIb3DQEBBQUAA4IBAQBEFRcUvJdgljVPJ33HwyeA/ltCO1XZ
8Zdi7kQp+vlblwWTPEwLK3R/311z3g+sV7ID1pJj2vd9QiZcqgRysrTNPgP2LzEX
wwkvPNIbkT77WsROfku/mKE+Z2TCZjZ2YCpUN9R2ntZBs/pwBT1+TN0mWkrIs/pS
/QysRp0avbmjRH1BZaIl13Ubo+5ZS57LBedyl2HCjsr2IESNXAqSkVaFA15N6/Os
c4yi5BdNhoe8XddzpQzQTTKeYduPzv3+2vTn8gYUfvjFgbIdMLmCWuabCSbYWRrm
n4MQz81AgLkpnPIWEEro3Yk4TS0WQBoDXsmrXb6qDaptC10SZxfnuYCQ
-----END CERTIFICATE-----
